ccopy_reg
_reconstructor
p0
(cboard
Board
p1
c__builtin__
object
p2
Ntp3
Rp4
(dp5
S'player_turn'
p6
S'white'
p7
sS'board'
p8
(lp9
I00
ag0
(csliding
Rook
p10
g2
Ntp11
Rp12
(dp13
S'motion'
p14
(I1
I10
I-1
I-10
tp15
sS'color'
p16
g7
sS'touched'
p17
I00
sS'notation'
p18
S'R'
p19
sS'position'
p20
I1
sbag0
(cstepping
Knight
p21
g2
Ntp22
Rp23
(dp24
g14
(I8
I12
I19
I21
I-8
I-12
I-19
I-21
tp25
sg16
g7
sg17
I00
sg18
S'N'
p26
sg20
I2
sbag0
(csliding
Bishop
p27
g2
Ntp28
Rp29
(dp30
g14
(I9
I11
I-9
I-11
tp31
sg16
g7
sg17
I00
sg18
S'B'
p32
sg20
I3
sbag0
(csliding
Queen
p33
g2
Ntp34
Rp35
(dp36
g14
(I1
I10
I-1
I-10
I9
I11
I-9
I-11
tp37
sg16
g7
sg17
I00
sg18
S'Q'
p38
sg20
I4
sbaI00
ag0
(cstepping
King
p39
g2
Ntp40
Rp41
(dp42
g14
(I1
I9
I10
I11
I-1
I-9
I-10
I-11
tp43
sg16
g7
sg17
I01
sg18
S'K'
p44
sg20
I6
sbag0
(g21
g2
Ntp45
Rp46
(dp47
g14
g25
sg16
g7
sg17
I00
sg18
g26
sg20
I7
sbag0
(g10
g2
Ntp48
Rp49
(dp50
g14
g15
sg16
g7
sg17
I00
sg18
g19
sg20
I8
sbaI00
aI00
ag0
(cpawns
Pawn
p51
g2
Ntp52
Rp53
(dp54
g16
g7
sg20
I11
sg17
I00
sg18
S''
p55
sbag0
(g51
g2
Ntp56
Rp57
(dp58
g16
g7
sg20
I12
sg17
I00
sg18
g55
sbag0
(g51
g2
Ntp59
Rp60
(dp61
g16
g7
sg20
I13
sg17
I00
sg18
g55
sbag0
(g51
g2
Ntp62
Rp63
(dp64
g16
g7
sg20
I14
sg17
I00
sg18
g55
sbaI00
aI00
ag0
(g51
g2
Ntp65
Rp66
(dp67
g16
g7
sg20
I17
sg17
I00
sg18
g55
sbag0
(g51
g2
Ntp68
Rp69
(dp70
g16
g7
sg20
I18
sg17
I00
sg18
g55
sbaI00
aI00
aI00
aI00
aI00
aI00
aI00
ag0
(g51
g2
Ntp71
Rp72
(dp73
g16
S'black'
p74
sg20
I26
sg17
I01
sg18
g55
sbaI00
aI00
aI00
aI00
aI00
aI00
ag0
(g27
g2
Ntp75
Rp76
(dp77
g14
g31
sg16
g7
sg17
I01
sg18
g32
sg20
I33
sbaI00
ag0
(g51
g2
Ntp78
Rp79
(dp80
g16
g7
sg20
I35
sg17
I01
sg18
g55
sbaI00
aI00
ag0
(g33
g2
Ntp81
Rp82
(dp83
g14
g37
sg16
g74
sg17
I01
sg18
g38
sg20
I38
sbaI00
aI00
aI00
aI00
aI00
aI00
aI00
aI00
aI00
aI00
aI00
aI00
aI00
aI00
aI00
aI00
aI00
aI00
aI00
aI00
aI00
aI00
ag0
(g51
g2
Ntp84
Rp85
(dp86
g16
g74
sg20
I61
sg17
I00
sg18
g55
sbag0
(g51
g2
Ntp87
Rp88
(dp89
g16
g74
sg20
I62
sg17
I00
sg18
g55
sbag0
(g51
g2
Ntp90
Rp91
(dp92
g16
g74
sg20
I63
sg17
I00
sg18
g55
sbag0
(g51
g2
Ntp93
Rp94
(dp95
g16
g74
sg20
I64
sg17
I00
sg18
g55
sbaI00
ag0
(g51
g2
Ntp96
Rp97
(dp98
g16
g74
sg20
I66
sg17
I00
sg18
g55
sbag0
(g51
g2
Ntp99
Rp100
(dp101
g16
g74
sg20
I67
sg17
I00
sg18
g55
sbag0
(g51
g2
Ntp102
Rp103
(dp104
g16
g74
sg20
I68
sg17
I00
sg18
g55
sbaI00
aI00
ag0
(g10
g2
Ntp105
Rp106
(dp107
g14
g15
sg16
g74
sg17
I00
sg18
g19
sg20
I71
sbag0
(g21
g2
Ntp108
Rp109
(dp110
g14
g25
sg16
g74
sg17
I00
sg18
g26
sg20
I72
sbag0
(g27
g2
Ntp111
Rp112
(dp113
g14
g31
sg16
g74
sg17
I00
sg18
g32
sg20
I73
sbaI00
ag0
(g39
g2
Ntp114
Rp115
(dp116
g14
g43
sg16
g74
sg17
I00
sg18
g44
sg20
I75
sbag0
(g27
g2
Ntp117
Rp118
(dp119
g14
g31
sg16
g74
sg17
I00
sg18
g32
sg20
I76
sbag0
(g21
g2
Ntp120
Rp121
(dp122
g14
g25
sg16
g74
sg17
I00
sg18
g26
sg20
I77
sbag0
(g10
g2
Ntp123
Rp124
(dp125
g14
g15
sg16
g74
sg17
I00
sg18
g19
sg20
I78
sbasS'game_over'
p126
I00
sS'log'
p127
(lp128
(lp129
S'e4 '
p130
aS'e5 '
p131
aa(lp132
S'f4 '
p133
aS'xf4 '
p134
aa(lp135
S'Bc4 '
p136
aVQh4\u271d 
p137
aa(lp138
S'Kf1 '
p139
aS'f3 '
p140
aasb.